target datalayout = "e-m:e-p270:32:32-p271:32:32-p272:64:64-i64:64-i128:128-f80:128-n8:16:32:64-S128"
target triple = "x86_64-pc-linux-gnu"

%struct.jit_State = type { %struct.GCtrace, ptr, ptr, ptr, ptr, ptr, ptr, i32, i32, i32, i8, i8, %struct.IRType1, i8, %struct.FoldState, ptr, i32, i32, i32, i32, i32, i32, i32, [1 x i32], [5 x %union.TValue], [3 x %union.TValue], ptr, i32, i32, i32, i32, ptr, ptr, i32, i32, i8, ptr, i32, i32, i16, [101 x i16], [258 x i32], [15 x i32], [16 x ptr], [64 x %struct.HotPenalty], i32, [16 x %struct.BPropEntry], i32, %struct.ScEvEntry, ptr, i32, i32, i32, ptr, i32, i32, ptr, ptr, ptr, i64, i64, %union.TValue, ptr, i32, i32 }
%struct.GCtrace = type { %struct.GCRef, i8, i8, i16, i32, i32, %struct.GCRef, ptr, i32, i32, ptr, ptr, %struct.GCRef, %struct.MRef, i32, i32, ptr, i32, i16, i16, i16, i16, i16, i16, i16, i8, i8, i8, i8 }
%struct.GCRef = type { i64 }
%struct.MRef = type { i64 }
%struct.IRType1 = type { i8 }
%struct.FoldState = type { %union.IRIns, [2 x %union.IRIns], [2 x %union.IRIns] }
%union.IRIns = type { %struct.GCRef }
%struct.HotPenalty = type { %struct.MRef, i16, i16 }
%struct.BPropEntry = type { i16, i16, i32 }
%struct.ScEvEntry = type { %struct.MRef, i16, i16, i16, i16, %struct.IRType1, i8 }
%union.TValue = type { i64 }
%struct.anon = type { i16, i16, i16, i16 }
%struct.anon.0 = type { i32, %struct.IRType1, i8, i8, i8 }

; Function Attrs: nounwind uwtable
define internal ptr @aa_findcnew(ptr noundef %0, ptr noundef %1) #0 {
  %3 = alloca ptr, align 8
  %4 = alloca ptr, align 8
  %5 = alloca ptr, align 8
  %6 = alloca ptr, align 8
  %7 = alloca i32, align 4
  store ptr %0, ptr %4, align 8, !tbaa !4
  store ptr %1, ptr %5, align 8, !tbaa !32
  br label %8

8:                                                ; preds = %47, %2
  %9 = load ptr, ptr %5, align 8, !tbaa !32
  %10 = getelementptr inbounds nuw %struct.anon.0, ptr %9, i32 0, i32 2
  %11 = load i8, ptr %10, align 1, !tbaa !11
  %12 = zext i8 %11 to i32
  %13 = icmp eq i32 %12, 41
  br i1 %13, label %14, label %57

14:                                               ; preds = %8
  %15 = load ptr, ptr %5, align 8, !tbaa !32
  %16 = getelementptr inbounds nuw %struct.anon, ptr %15, i32 0, i32 0
  %17 = load i16, ptr %16, align 8, !tbaa !11
  %18 = zext i16 %17 to i32
  %19 = icmp slt i32 %18, 32768
  br i1 %19, label %40, label %20

20:                                               ; preds = %14
  call void @llvm.lifetime.start.p0(i64 8, ptr %6) #5
  %21 = load ptr, ptr %4, align 8, !tbaa !4
  %22 = load ptr, ptr %4, align 8, !tbaa !4
  %23 = getelementptr inbounds nuw %struct.jit_State, ptr %22, i32 0, i32 0
  %24 = getelementptr inbounds nuw %struct.GCtrace, ptr %23, i32 0, i32 7
  %25 = load ptr, ptr %24, align 8, !tbaa !14
  %26 = load ptr, ptr %5, align 8, !tbaa !32
  %27 = getelementptr inbounds nuw %struct.anon, ptr %26, i32 0, i32 0
  %28 = load i16, ptr %27, align 8, !tbaa !11
  %29 = zext i16 %28 to i64
  %30 = getelementptr inbounds nuw %union.IRIns, ptr %25, i64 %29
  %31 = call ptr @aa_findcnew(ptr noundef %21, ptr noundef %30)
  store ptr %31, ptr %6, align 8, !tbaa !32
  %32 = load ptr, ptr %6, align 8, !tbaa !32
  %33 = icmp ne ptr %32, null
  br i1 %33, label %34, label %36

34:                                               ; preds = %20
  %35 = load ptr, ptr %6, align 8, !tbaa !32
  store ptr %35, ptr %3, align 8
  store i32 1, ptr %7, align 4
  br label %37

36:                                               ; preds = %20
  store i32 0, ptr %7, align 4
  br label %37

37:                                               ; preds = %36, %34
  call void @llvm.lifetime.end.p0(i64 8, ptr %6) #5
  %38 = load i32, ptr %7, align 4
  switch i32 %38, label %70 [
    i32 0, label %39
    i32 1, label %68
  ]

39:                                               ; preds = %37
  br label %40

40:                                               ; preds = %39, %14
  %41 = load ptr, ptr %5, align 8, !tbaa !32
  %42 = getelementptr inbounds nuw %struct.anon, ptr %41, i32 0, i32 1
  %43 = load i16, ptr %42, align 2, !tbaa !11
  %44 = zext i16 %43 to i32
  %45 = icmp slt i32 %44, 32768
  br i1 %45, label %46, label %47

46:                                               ; preds = %40
  store ptr null, ptr %3, align 8
  br label %68

47:                                               ; preds = %40
  %48 = load ptr, ptr %4, align 8, !tbaa !4
  %49 = getelementptr inbounds nuw %struct.jit_State, ptr %48, i32 0, i32 0
  %50 = getelementptr inbounds nuw %struct.GCtrace, ptr %49, i32 0, i32 7
  %51 = load ptr, ptr %50, align 8, !tbaa !14
  %52 = load ptr, ptr %5, align 8, !tbaa !32
  %53 = getelementptr inbounds nuw %struct.anon, ptr %52, i32 0, i32 1
  %54 = load i16, ptr %53, align 2, !tbaa !11
  %55 = zext i16 %54 to i64
  %56 = getelementptr inbounds nuw %union.IRIns, ptr %51, i64 %55
  store ptr %56, ptr %5, align 8, !tbaa !32
  br label %8, !llvm.loop !76

57:                                               ; preds = %8
  %58 = load ptr, ptr %5, align 8, !tbaa !32
  %59 = getelementptr inbounds nuw %struct.anon.0, ptr %58, i32 0, i32 2
  %60 = load i8, ptr %59, align 1, !tbaa !11
  %61 = zext i8 %60 to i32
  %62 = icmp eq i32 %61, 83
  br i1 %62, label %63, label %65

63:                                               ; preds = %57
  %64 = load ptr, ptr %5, align 8, !tbaa !32
  br label %66

65:                                               ; preds = %57
  br label %66

66:                                               ; preds = %65, %63
  %67 = phi ptr [ %64, %63 ], [ null, %65 ]
  store ptr %67, ptr %3, align 8
  br label %68

68:                                               ; preds = %66, %46, %37
  %69 = load ptr, ptr %3, align 8
  ret ptr %69

70:                                               ; preds = %37
  unreachable
}