; Function Attrs: nofree nosync nounwind memory(read, inaccessiblemem: none) uwtable
define internal fastcc ptr @aa_findcnew(ptr noundef readonly captures(none) %0, ptr noundef readonly captures(ret: address, provenance) %1) unnamed_addr #4 {
  %3 = getelementptr inbounds nuw i8, ptr %1, i64 5
  %4 = load i8, ptr %3, align 1, !tbaa !4
  %5 = icmp eq i8 %4, 41
  br i1 %5, label %.lr.ph, label %._crit_edge

.lr.ph:                                           ; preds = %2
  %6 = getelementptr inbounds nuw i8, ptr %0, i64 32
  br label %7

7:                                                ; preds = %.lr.ph, %19
  %.01419 = phi ptr [ %1, %.lr.ph ], [ %22, %19 ]
  %8 = load i16, ptr %.01419, align 8, !tbaa !4
  %9 = icmp sgt i16 %8, -1
  br i1 %9, label %15, label %10

10:                                               ; preds = %7
  %11 = load ptr, ptr %6, align 8, !tbaa !7
  %12 = zext i16 %8 to i64
  %13 = getelementptr inbounds nuw %union.IRIns, ptr %11, i64 %12
  %14 = tail call fastcc ptr @aa_findcnew(ptr noundef %0, ptr noundef nonnull %13)
  %.not.not = icmp eq ptr %14, null
  br i1 %.not.not, label %15, label %.loopexit

15:                                               ; preds = %10, %7
  %16 = getelementptr inbounds nuw i8, ptr %.01419, i64 2
  %17 = load i16, ptr %16, align 2, !tbaa !4
  %18 = icmp sgt i16 %17, -1
  br i1 %18, label %.loopexit, label %19

19:                                               ; preds = %15
  %20 = load ptr, ptr %6, align 8, !tbaa !7
  %21 = zext i16 %17 to i64
  %22 = getelementptr inbounds nuw %union.IRIns, ptr %20, i64 %21
  %23 = getelementptr inbounds nuw i8, ptr %22, i64 5
  %24 = load i8, ptr %23, align 1, !tbaa !4
  %25 = icmp eq i8 %24, 41
  br i1 %25, label %7, label %._crit_edge, !llvm.loop !53

._crit_edge:                                      ; preds = %19, %2
  %.014.lcssa = phi ptr [ %1, %2 ], [ %22, %19 ]
  %.lcssa = phi i8 [ %4, %2 ], [ %24, %19 ]
  %26 = icmp eq i8 %.lcssa, 83
  %27 = select i1 %26, ptr %.014.lcssa, ptr null
  br label %.loopexit

.loopexit:                                        ; preds = %10, %15, %._crit_edge
  %.3 = phi ptr [ %27, %._crit_edge ], [ null, %15 ], [ %14, %10 ]
  ret ptr %.3
}